target datalayout = "e-m:e-p270:32:32-p271:32:32-p272:64:64-i64:64-i128:128-f80:128-n8:16:32:64-S128"
target triple = "x86_64-pc-linux-gnu"

%struct.KINMemRec = type { ptr, double, ptr, ptr, double, double, i32, i64, i64, i64, i64, i32, i32, i32, i32, i32, i32, i32, i32, double, double, double, double, double, double, double, double, double, i32, double, i64, i64, i64, i64, i64, i64, i64, ptr, ptr, ptr, ptr, ptr, ptr, ptr, ptr, ptr, ptr, ptr, i32, i32, double, ptr, ptr, ptr, ptr, ptr, double, ptr, ptr, ptr, ptr, i64, i64, i32, ptr, ptr, i32, ptr, ptr, i64, i64, i64, i64, ptr, ptr, ptr, ptr, i32, ptr, double, double, double, double, double, i32, double, double, double, i32 }

; Function Attrs: nounwind uwtable
define internal i32 @KINConstraint(ptr noundef %0) #0 {
  %2 = alloca i32, align 4
  %3 = alloca ptr, align 8
  store ptr %0, ptr %3, align 8, !tbaa !8
  %4 = load ptr, ptr %3, align 8, !tbaa !8
  %5 = getelementptr inbounds nuw %struct.KINMemRec, ptr %4, i32 0, i32 37
  %6 = load ptr, ptr %5, align 8, !tbaa !24
  %7 = load ptr, ptr %3, align 8, !tbaa !8
  %8 = getelementptr inbounds nuw %struct.KINMemRec, ptr %7, i32 0, i32 43
  %9 = load ptr, ptr %8, align 8, !tbaa !30
  %10 = load ptr, ptr %3, align 8, !tbaa !8
  %11 = getelementptr inbounds nuw %struct.KINMemRec, ptr %10, i32 0, i32 45
  %12 = load ptr, ptr %11, align 8, !tbaa !32
  call void @N_VLinearSum(double noundef 1.000000e+00, ptr noundef %6, double noundef 1.000000e+00, ptr noundef %9, ptr noundef %12)
  %13 = load ptr, ptr %3, align 8, !tbaa !8
  %14 = getelementptr inbounds nuw %struct.KINMemRec, ptr %13, i32 0, i32 44
  %15 = load ptr, ptr %14, align 8, !tbaa !31
  %16 = load ptr, ptr %3, align 8, !tbaa !8
  %17 = getelementptr inbounds nuw %struct.KINMemRec, ptr %16, i32 0, i32 45
  %18 = load ptr, ptr %17, align 8, !tbaa !32
  %19 = load ptr, ptr %3, align 8, !tbaa !8
  %20 = getelementptr inbounds nuw %struct.KINMemRec, ptr %19, i32 0, i32 46
  %21 = load ptr, ptr %20, align 8, !tbaa !33
  %22 = call i32 @N_VConstrMask(ptr noundef %15, ptr noundef %18, ptr noundef %21)
  %23 = icmp ne i32 %22, 0
  br i1 %23, label %24, label %25

24:                                               ; preds = %1
  store i32 0, ptr %2, align 4
  br label %57

25:                                               ; preds = %1
  %26 = load ptr, ptr %3, align 8, !tbaa !8
  %27 = getelementptr inbounds nuw %struct.KINMemRec, ptr %26, i32 0, i32 43
  %28 = load ptr, ptr %27, align 8, !tbaa !30
  %29 = load ptr, ptr %3, align 8, !tbaa !8
  %30 = getelementptr inbounds nuw %struct.KINMemRec, ptr %29, i32 0, i32 45
  %31 = load ptr, ptr %30, align 8, !tbaa !32
  call void @N_VAbs(ptr noundef %28, ptr noundef %31)
  %32 = load ptr, ptr %3, align 8, !tbaa !8
  %33 = getelementptr inbounds nuw %struct.KINMemRec, ptr %32, i32 0, i32 46
  %34 = load ptr, ptr %33, align 8, !tbaa !33
  %35 = load ptr, ptr %3, align 8, !tbaa !8
  %36 = getelementptr inbounds nuw %struct.KINMemRec, ptr %35, i32 0, i32 45
  %37 = load ptr, ptr %36, align 8, !tbaa !32
  %38 = load ptr, ptr %3, align 8, !tbaa !8
  %39 = getelementptr inbounds nuw %struct.KINMemRec, ptr %38, i32 0, i32 45
  %40 = load ptr, ptr %39, align 8, !tbaa !32
  call void @N_VProd(ptr noundef %34, ptr noundef %37, ptr noundef %40)
  %41 = load ptr, ptr %3, align 8, !tbaa !8
  %42 = getelementptr inbounds nuw %struct.KINMemRec, ptr %41, i32 0, i32 37
  %43 = load ptr, ptr %42, align 8, !tbaa !24
  %44 = load ptr, ptr %3, align 8, !tbaa !8
  %45 = getelementptr inbounds nuw %struct.KINMemRec, ptr %44, i32 0, i32 46
  %46 = load ptr, ptr %45, align 8, !tbaa !33
  call void @N_VAbs(ptr noundef %43, ptr noundef %46)
  %47 = load ptr, ptr %3, align 8, !tbaa !8
  %48 = getelementptr inbounds nuw %struct.KINMemRec, ptr %47, i32 0, i32 46
  %49 = load ptr, ptr %48, align 8, !tbaa !33
  %50 = load ptr, ptr %3, align 8, !tbaa !8
  %51 = getelementptr inbounds nuw %struct.KINMemRec, ptr %50, i32 0, i32 45
  %52 = load ptr, ptr %51, align 8, !tbaa !32
  %53 = call double @N_VMinQuotient(ptr noundef %49, ptr noundef %52)
  %54 = fmul double 9.000000e-01, %53
  %55 = load ptr, ptr %3, align 8, !tbaa !8
  %56 = getelementptr inbounds nuw %struct.KINMemRec, ptr %55, i32 0, i32 23
  store double %54, ptr %56, align 8, !tbaa !145
  store i32 -996, ptr %2, align 4
  br label %57

57:                                               ; preds = %25, %24
  %58 = load i32, ptr %2, align 4
  ret i32 %58
}